; Function Attrs: mustprogress uwtable
define void @_ZN7xgboost11EllpackPageD2Ev(ptr noundef nonnull align 8 dereferenceable(8) %0) unnamed_addr #4 align 2 personality ptr @__gxx_personality_v0 {
  %2 = alloca %"class.dmlc::LogMessageFatal", align 1
  call void @llvm.lifetime.start.p0(i64 1, ptr nonnull %2) #12
  %3 = invoke noundef nonnull align 8 dereferenceable(376) ptr @_ZN4dmlc15LogMessageFatal8GetEntryEv(ptr noundef nonnull align 1 dereferenceable(1) %2)
          to label %.noexc unwind label %32

.noexc:                                           ; preds = %1
  invoke void @_ZN4dmlc15LogMessageFatal5Entry4InitEPKci(ptr noundef nonnull align 8 dereferenceable(376) %3, ptr noundef nonnull @.str, i32 noundef 31)
          to label %_ZN4dmlc15LogMessageFatalC2EPKci.exit unwind label %32

_ZN4dmlc15LogMessageFatalC2EPKci.exit:            ; preds = %.noexc
  %4 = invoke noundef nonnull align 8 dereferenceable(376) ptr @_ZN4dmlc15LogMessageFatal8GetEntryEv(ptr noundef nonnull align 1 dereferenceable(1) %2)
          to label %_ZN4dmlc15LogMessageFatal6streamB5cxx11Ev.exit unwind label %34

_ZN4dmlc15LogMessageFatal6streamB5cxx11Ev.exit:   ; preds = %_ZN4dmlc15LogMessageFatalC2EPKci.exit
  %5 = invoke noundef nonnull align 8 dereferenceable(8) ptr @_ZSt16__ostream_insertIcSt11char_traitsIcEERSt13basic_ostreamIT_T0_ES6_PKS3_l(ptr noundef nonnull align 8 dereferenceable(8) %4, ptr noundef nonnull @.str.1, i64 noundef 77)
          to label %_ZStlsISt11char_traitsIcEERSt13basic_ostreamIcT_ES5_PKc.exit unwind label %34

_ZStlsISt11char_traitsIcEERSt13basic_ostreamIcT_ES5_PKc.exit: ; preds = %_ZN4dmlc15LogMessageFatal6streamB5cxx11Ev.exit
  invoke void @_ZN4dmlc15LogMessageFatalD2Ev(ptr noundef nonnull align 1 dereferenceable(1) %2)
          to label %6 unwind label %32

6:                                                ; preds = %_ZStlsISt11char_traitsIcEERSt13basic_ostreamIcT_ES5_PKc.exit
  call void @llvm.lifetime.end.p0(i64 1, ptr nonnull %2) #12
  %7 = load ptr, ptr %0, align 8, !tbaa !17
  %.not.i = icmp eq ptr %7, null
  br i1 %.not.i, label %_ZNSt10unique_ptrIN7xgboost15EllpackPageImplESt14default_deleteIS1_EED2Ev.exit, label %8

8:                                                ; preds = %6
  %9 = getelementptr inbounds nuw i8, ptr %7, i64 8
  %10 = load ptr, ptr %9, align 8, !tbaa !18
  %.not.i.i.i.i.i = icmp eq ptr %10, null
  br i1 %.not.i.i.i.i.i, label %_ZNKSt14default_deleteIN7xgboost15EllpackPageImplEEclEPS1_.exit.i, label %11

11:                                               ; preds = %8
  %12 = getelementptr inbounds nuw i8, ptr %10, i64 8
  %13 = load atomic i64, ptr %12 acquire, align 8
  %14 = icmp eq i64 %13, 4294967297
  %15 = trunc i64 %13 to i32
  br i1 %14, label %16, label %24

16:                                               ; preds = %11
  store i32 0, ptr %12, align 8, !tbaa !21
  %17 = getelementptr inbounds nuw i8, ptr %10, i64 12
  store i32 0, ptr %17, align 4, !tbaa !24
  %18 = load ptr, ptr %10, align 8, !tbaa !25
  %19 = getelementptr inbounds nuw i8, ptr %18, i64 16
  %20 = load ptr, ptr %19, align 8
  call void %20(ptr noundef nonnull align 8 dereferenceable(16) %10) #12
  %21 = load ptr, ptr %10, align 8, !tbaa !25
  %22 = getelementptr inbounds nuw i8, ptr %21, i64 24
  %23 = load ptr, ptr %22, align 8
  call void %23(ptr noundef nonnull align 8 dereferenceable(16) %10) #12
  br label %_ZNKSt14default_deleteIN7xgboost15EllpackPageImplEEclEPS1_.exit.i

24:                                               ; preds = %11
  %25 = load i8, ptr @__libc_single_threaded, align 1, !tbaa !16
  %.not.i.i.i.i.i.i = icmp eq i8 %25, 0
  br i1 %.not.i.i.i.i.i.i, label %28, label %26

26:                                               ; preds = %24
  %27 = add nsw i32 %15, -1
  store i32 %27, ptr %12, align 4, !tbaa !27
  br label %_ZN9__gnu_cxx27__exchange_and_add_dispatchEPii.exit.i.i.i.i.i.i

28:                                               ; preds = %24
  %29 = atomicrmw volatile add ptr %12, i32 -1 acq_rel, align 4
  br label %_ZN9__gnu_cxx27__exchange_and_add_dispatchEPii.exit.i.i.i.i.i.i

_ZN9__gnu_cxx27__exchange_and_add_dispatchEPii.exit.i.i.i.i.i.i: ; preds = %28, %26
  %.0.i.i.i.i.i.i.i = phi i32 [ %15, %26 ], [ %29, %28 ]
  %30 = icmp eq i32 %.0.i.i.i.i.i.i.i, 1
  br i1 %30, label %31, label %_ZNKSt14default_deleteIN7xgboost15EllpackPageImplEEclEPS1_.exit.i, !prof !28

31:                                               ; preds = %_ZN9__gnu_cxx27__exchange_and_add_dispatchEPii.exit.i.i.i.i.i.i
  call void @_ZNSt16_Sp_counted_baseILN9__gnu_cxx12_Lock_policyE2EE24_M_release_last_use_coldEv(ptr noundef nonnull align 8 dereferenceable(16) %10) #12
  br label %_ZNKSt14default_deleteIN7xgboost15EllpackPageImplEEclEPS1_.exit.i

_ZNKSt14default_deleteIN7xgboost15EllpackPageImplEEclEPS1_.exit.i: ; preds = %31, %_ZN9__gnu_cxx27__exchange_and_add_dispatchEPii.exit.i.i.i.i.i.i, %16, %8
  call void @_ZdlPvm(ptr noundef nonnull %7, i64 noundef 16) #30
  br label %_ZNSt10unique_ptrIN7xgboost15EllpackPageImplESt14default_deleteIS1_EED2Ev.exit

_ZNSt10unique_ptrIN7xgboost15EllpackPageImplESt14default_deleteIS1_EED2Ev.exit: ; preds = %6, %_ZNKSt14default_deleteIN7xgboost15EllpackPageImplEEclEPS1_.exit.i
  store ptr null, ptr %0, align 8, !tbaa !17
  ret void

32:                                               ; preds = %.noexc, %1, %_ZStlsISt11char_traitsIcEERSt13basic_ostreamIcT_ES5_PKc.exit
  %33 = landingpad { ptr, i32 }
          cleanup
  br label %36

34:                                               ; preds = %_ZN4dmlc15LogMessageFatal6streamB5cxx11Ev.exit, %_ZN4dmlc15LogMessageFatalC2EPKci.exit
  %35 = landingpad { ptr, i32 }
          cleanup
  invoke void @_ZN4dmlc15LogMessageFatalD2Ev(ptr noundef nonnull align 1 dereferenceable(1) %2)
          to label %36 unwind label %37

36:                                               ; preds = %34, %32
  %.pn = phi { ptr, i32 } [ %33, %32 ], [ %35, %34 ]
  call void @llvm.lifetime.end.p0(i64 1, ptr nonnull %2) #12
  call void @_ZNSt10unique_ptrIN7xgboost15EllpackPageImplESt14default_deleteIS1_EED2Ev(ptr noundef nonnull align 8 dereferenceable(8) %0) #12
  resume { ptr, i32 } %.pn

37:                                               ; preds = %34
  %38 = landingpad { ptr, i32 }
          catch ptr null
  %39 = extractvalue { ptr, i32 } %38, 0
  call void @__clang_call_terminate(ptr %39) #29
  unreachable
}